target datalayout = "e-m:e-p270:32:32-p271:32:32-p272:64:64-i64:64-i128:128-f80:128-n8:16:32:64-S128"
target triple = "x86_64-pc-linux-gnu"

; Function Attrs: mustprogress optsize uwtable
define noundef ptr @_ZN5ZXing6QRCode11ReadVersionERKNS_9BitMatrixENS0_4TypeE(ptr noundef nonnull align 8 dereferenceable(32) %0, i32 noundef %1) #0 {
  %3 = alloca ptr, align 8
  %4 = alloca ptr, align 8
  %5 = alloca i32, align 4
  %6 = alloca i32, align 4
  %7 = alloca i32, align 4
  store ptr %0, ptr %4, align 8, !tbaa !3
  store i32 %1, ptr %5, align 4, !tbaa !8
  call void @llvm.lifetime.start.p0(i64 4, ptr %6) #15
  %8 = load ptr, ptr %4, align 8, !tbaa !3
  %9 = call noundef i32 @_ZN5ZXing6QRCode7Version6NumberERKNS_9BitMatrixE(ptr noundef nonnull align 8 dereferenceable(32) %8) #16
  store i32 %9, ptr %6, align 4, !tbaa !10
  %10 = load i32, ptr %5, align 4, !tbaa !8
  switch i32 %10, label %23 [
    i32 2, label %11
    i32 3, label %14
    i32 0, label %17
    i32 1, label %20
  ]

11:                                               ; preds = %2
  %12 = load i32, ptr %6, align 4, !tbaa !10
  %13 = call noundef ptr @_ZN5ZXing6QRCode7Version5MicroEi(i32 noundef %12) #16
  store ptr %13, ptr %3, align 8
  store i32 1, ptr %7, align 4
  br label %24

14:                                               ; preds = %2
  %15 = load i32, ptr %6, align 4, !tbaa !10
  %16 = call noundef ptr @_ZN5ZXing6QRCode7Version4rMQREi(i32 noundef %15) #16
  store ptr %16, ptr %3, align 8
  store i32 1, ptr %7, align 4
  br label %24

17:                                               ; preds = %2
  %18 = load i32, ptr %6, align 4, !tbaa !10
  %19 = call noundef ptr @_ZN5ZXing6QRCode7Version6Model1Ei(i32 noundef %18) #16
  store ptr %19, ptr %3, align 8
  store i32 1, ptr %7, align 4
  br label %24

20:                                               ; preds = %2
  %21 = load i32, ptr %6, align 4, !tbaa !10
  %22 = call noundef ptr @_ZN5ZXing6QRCode7Version6Model2Ei(i32 noundef %21) #16
  store ptr %22, ptr %3, align 8
  store i32 1, ptr %7, align 4
  br label %24

23:                                               ; preds = %2
  store ptr null, ptr %3, align 8
  store i32 1, ptr %7, align 4
  br label %24

24:                                               ; preds = %23, %20, %17, %14, %11
  call void @llvm.lifetime.end.p0(i64 4, ptr %6) #15
  %25 = load ptr, ptr %3, align 8
  ret ptr %25
}