; Function Attrs: mustprogress optsize uwtable
define noundef ptr @_ZN5ZXing6QRCode11ReadVersionERKNS_9BitMatrixENS0_4TypeE(ptr noundef nonnull align 8 dereferenceable(32) %0, i32 noundef %1) local_unnamed_addr #0 {
  %3 = tail call noundef i32 @_ZN5ZXing6QRCode7Version6NumberERKNS_9BitMatrixE(ptr noundef nonnull align 8 dereferenceable(32) %0) #13
  switch i32 %1, label %12 [
    i32 2, label %4
    i32 3, label %6
    i32 0, label %8
    i32 1, label %10
  ]

4:                                                ; preds = %2
  %5 = tail call noundef ptr @_ZN5ZXing6QRCode7Version5MicroEi(i32 noundef %3) #13
  br label %12

6:                                                ; preds = %2
  %7 = tail call noundef ptr @_ZN5ZXing6QRCode7Version4rMQREi(i32 noundef %3) #13
  br label %12

8:                                                ; preds = %2
  %9 = tail call noundef ptr @_ZN5ZXing6QRCode7Version6Model1Ei(i32 noundef %3) #13
  br label %12

10:                                               ; preds = %2
  %11 = tail call noundef ptr @_ZN5ZXing6QRCode7Version6Model2Ei(i32 noundef %3) #13
  br label %12

12:                                               ; preds = %2, %10, %8, %6, %4
  %.0 = phi ptr [ %11, %10 ], [ %9, %8 ], [ %7, %6 ], [ %5, %4 ], [ null, %2 ]
  ret ptr %.0
}